; Function Attrs: mustprogress nofree norecurse nosync nounwind uwtable
define internal noundef nonnull ptr @_ZN6evmone8advanced12_GLOBAL__N_12opIXadL_ZNS0_5instr4implILNS_6OpcodeE23EXadL_ZNS_5instr4core3or_ENS_8StackTopEEEEEvRNS0_22AdvancedExecutionStateEEEEEPKNS0_11InstructionESD_SA_(ptr noundef readnone captures(ret: address, provenance) %0, ptr noundef nonnull align 8 captures(none) dereferenceable(564) %1) #3 {
  %3 = alloca %"struct.intx::uint", align 8
  %4 = getelementptr inbounds nuw i8, ptr %1, i64 552
  %.sroa.0.0.copyload.i = load ptr, ptr %4, align 8, !tbaa !57
  %5 = getelementptr inbounds i8, ptr %.sroa.0.0.copyload.i, i64 -32
  %6 = getelementptr inbounds i8, ptr %.sroa.0.0.copyload.i, i64 -64
  call void @llvm.lifetime.start.p0(ptr nonnull %3) #26
  tail call void @llvm.experimental.noalias.scope.decl(metadata !116)
  call void @llvm.memset.p0.i64(ptr noundef nonnull align 8 dereferenceable(32) %3, i8 0, i64 32, i1 false), !tbaa !59, !alias.scope !116
  br label %7

7:                                                ; preds = %7, %2
  %.06.i.i.i.i = phi i64 [ 0, %2 ], [ %14, %7 ]
  %8 = getelementptr inbounds nuw i64, ptr %6, i64 %.06.i.i.i.i
  %9 = load i64, ptr %8, align 8, !tbaa !59, !noalias !116
  %10 = getelementptr inbounds nuw i64, ptr %5, i64 %.06.i.i.i.i
  %11 = load i64, ptr %10, align 8, !tbaa !59, !noalias !116
  %12 = or i64 %11, %9
  %13 = getelementptr inbounds nuw i64, ptr %3, i64 %.06.i.i.i.i
  store i64 %12, ptr %13, align 8, !tbaa !59, !alias.scope !116
  %14 = add nuw nsw i64 %.06.i.i.i.i, 1
  %exitcond.not.i.i.i.i = icmp eq i64 %14, 4
  br i1 %exitcond.not.i.i.i.i, label %_ZN6evmone8advanced5instr4implILNS_6OpcodeE23EXadL_ZNS_5instr4core3or_ENS_8StackTopEEEEEvRNS0_22AdvancedExecutionStateE.exit, label %7, !llvm.loop !119

_ZN6evmone8advanced5instr4implILNS_6OpcodeE23EXadL_ZNS_5instr4core3or_ENS_8StackTopEEEEEvRNS0_22AdvancedExecutionStateE.exit: ; preds = %7
  call void @llvm.memcpy.p0.p0.i64(ptr noundef nonnull align 8 dereferenceable(32) %6, ptr noundef nonnull align 8 dereferenceable(32) %3, i64 32, i1 false), !tbaa.struct !79
  call void @llvm.lifetime.end.p0(ptr nonnull %3) #26
  %15 = load ptr, ptr %4, align 8, !tbaa !67
  %16 = getelementptr inbounds i8, ptr %15, i64 -32
  call void @llvm.assume(i1 true) [ "align"(ptr %16, i64 32) ]
  %17 = ptrtoint ptr %16 to i64
  store i64 %17, ptr %4, align 8, !tbaa !57
  %18 = getelementptr inbounds nuw i8, ptr %0, i64 16
  ret ptr %18
}